target datalayout = "e-m:e-p270:32:32-p271:32:32-p272:64:64-i64:64-i128:128-f80:128-n8:16:32:64-S128"
target triple = "x86_64-pc-linux-gnu"

%struct.__va_list_tag = type { i32, i32, ptr, ptr }

@traceLog = internal global ptr null, align 8
@logTypeLevel = internal global i32 3, align 4
@.str = private unnamed_addr constant [8 x i8] c"TRACE: \00", align 1
@.str.1 = private unnamed_addr constant [8 x i8] c"DEBUG: \00", align 1
@.str.2 = private unnamed_addr constant [7 x i8] c"INFO: \00", align 1
@.str.3 = private unnamed_addr constant [10 x i8] c"WARNING: \00", align 1
@.str.4 = private unnamed_addr constant [8 x i8] c"ERROR: \00", align 1
@.str.5 = private unnamed_addr constant [8 x i8] c"FATAL: \00", align 1
@.str.6 = private unnamed_addr constant [2 x i8] c"\0A\00", align 1
@stdout = external global ptr, align 8

; Function Attrs: inlinehint nounwind uwtable
define available_externally i32 @vprintf(ptr noalias noundef %0, ptr noundef %1) #7 {
  %3 = alloca ptr, align 8
  %4 = alloca ptr, align 8
  store ptr %0, ptr %3, align 8
  store ptr %1, ptr %4, align 8
  %5 = load ptr, ptr @stdout, align 8
  %6 = load ptr, ptr %3, align 8
  %7 = load ptr, ptr %4, align 8
  %8 = call i32 @vfprintf(ptr noundef %5, ptr noundef %6, ptr noundef %7) #13
  ret i32 %8
}

; Function Attrs: nounwind uwtable
define void @TraceLog(i32 noundef %0, ptr noundef %1, ...) #0 {
  %3 = alloca i32, align 4
  %4 = alloca ptr, align 8
  %5 = alloca [1 x %struct.__va_list_tag], align 16
  %6 = alloca i32, align 4
  %7 = alloca [256 x i8], align 16
  %8 = alloca i32, align 4
  store i32 %0, ptr %3, align 4
  store ptr %1, ptr %4, align 8
  %9 = load i32, ptr %3, align 4
  %10 = load i32, ptr @logTypeLevel, align 4
  %11 = icmp slt i32 %9, %10
  br i1 %11, label %12, label %13

12:                                               ; preds = %2
  br label %75

13:                                               ; preds = %2
  call void @llvm.lifetime.start.p0(i64 24, ptr %5) #13
  %14 = getelementptr inbounds [1 x %struct.__va_list_tag], ptr %5, i64 0, i64 0
  call void @llvm.va_start.p0(ptr %14)
  %15 = load ptr, ptr @traceLog, align 8
  %16 = icmp ne ptr %15, null
  br i1 %16, label %17, label %23

17:                                               ; preds = %13
  %18 = load ptr, ptr @traceLog, align 8
  %19 = load i32, ptr %3, align 4
  %20 = load ptr, ptr %4, align 8
  %21 = getelementptr inbounds [1 x %struct.__va_list_tag], ptr %5, i64 0, i64 0
  call void %18(i32 noundef %19, ptr noundef %20, ptr noundef %21)
  %22 = getelementptr inbounds [1 x %struct.__va_list_tag], ptr %5, i64 0, i64 0
  call void @llvm.va_end.p0(ptr %22)
  store i32 1, ptr %6, align 4
  br label %73

23:                                               ; preds = %13
  call void @llvm.lifetime.start.p0(i64 256, ptr %7) #13
  call void @llvm.memset.p0.i64(ptr align 16 %7, i8 0, i64 256, i1 false)
  %24 = load i32, ptr %3, align 4
  switch i32 %24, label %43 [
    i32 1, label %25
    i32 2, label %28
    i32 3, label %31
    i32 4, label %34
    i32 5, label %37
    i32 6, label %40
  ]

25:                                               ; preds = %23
  %26 = getelementptr inbounds [256 x i8], ptr %7, i64 0, i64 0
  %27 = call ptr @strcpy(ptr noundef %26, ptr noundef @.str) #13
  br label %44

28:                                               ; preds = %23
  %29 = getelementptr inbounds [256 x i8], ptr %7, i64 0, i64 0
  %30 = call ptr @strcpy(ptr noundef %29, ptr noundef @.str.1) #13
  br label %44

31:                                               ; preds = %23
  %32 = getelementptr inbounds [256 x i8], ptr %7, i64 0, i64 0
  %33 = call ptr @strcpy(ptr noundef %32, ptr noundef @.str.2) #13
  br label %44

34:                                               ; preds = %23
  %35 = getelementptr inbounds [256 x i8], ptr %7, i64 0, i64 0
  %36 = call ptr @strcpy(ptr noundef %35, ptr noundef @.str.3) #13
  br label %44

37:                                               ; preds = %23
  %38 = getelementptr inbounds [256 x i8], ptr %7, i64 0, i64 0
  %39 = call ptr @strcpy(ptr noundef %38, ptr noundef @.str.4) #13
  br label %44

40:                                               ; preds = %23
  %41 = getelementptr inbounds [256 x i8], ptr %7, i64 0, i64 0
  %42 = call ptr @strcpy(ptr noundef %41, ptr noundef @.str.5) #13
  br label %44

43:                                               ; preds = %23
  br label %44

44:                                               ; preds = %43, %40, %37, %34, %31, %28, %25
  call void @llvm.lifetime.start.p0(i64 4, ptr %8) #13
  %45 = load ptr, ptr %4, align 8
  %46 = call i64 @strlen(ptr noundef %45) #14
  %47 = trunc i64 %46 to i32
  store i32 %47, ptr %8, align 4
  %48 = getelementptr inbounds [256 x i8], ptr %7, i64 0, i64 0
  %49 = getelementptr inbounds [256 x i8], ptr %7, i64 0, i64 0
  %50 = call i64 @strlen(ptr noundef %49) #14
  %51 = getelementptr inbounds nuw i8, ptr %48, i64 %50
  %52 = load ptr, ptr %4, align 8
  %53 = load i32, ptr %8, align 4
  %54 = icmp ult i32 %53, 244
  br i1 %54, label %55, label %57

55:                                               ; preds = %44
  %56 = load i32, ptr %8, align 4
  br label %58

57:                                               ; preds = %44
  br label %58

58:                                               ; preds = %57, %55
  %59 = phi i32 [ %56, %55 ], [ 244, %57 ]
  %60 = zext i32 %59 to i64
  call void @llvm.memcpy.p0.p0.i64(ptr align 1 %51, ptr align 1 %52, i64 %60, i1 false)
  %61 = getelementptr inbounds [256 x i8], ptr %7, i64 0, i64 0
  %62 = call ptr @strcat(ptr noundef %61, ptr noundef @.str.6) #13
  %63 = getelementptr inbounds [256 x i8], ptr %7, i64 0, i64 0
  %64 = getelementptr inbounds [1 x %struct.__va_list_tag], ptr %5, i64 0, i64 0
  %65 = call i32 @vprintf(ptr noundef %63, ptr noundef %64) #13
  %66 = load ptr, ptr @stdout, align 8
  %67 = call i32 @fflush(ptr noundef %66)
  %68 = getelementptr inbounds [1 x %struct.__va_list_tag], ptr %5, i64 0, i64 0
  call void @llvm.va_end.p0(ptr %68)
  %69 = load i32, ptr %3, align 4
  %70 = icmp eq i32 %69, 6
  br i1 %70, label %71, label %72

71:                                               ; preds = %58
  call void @exit(i32 noundef 1) #15
  unreachable

72:                                               ; preds = %58
  call void @llvm.lifetime.end.p0(i64 4, ptr %8) #13
  call void @llvm.lifetime.end.p0(i64 256, ptr %7) #13
  store i32 0, ptr %6, align 4
  br label %73

73:                                               ; preds = %72, %17
  call void @llvm.lifetime.end.p0(i64 24, ptr %5) #13
  %74 = load i32, ptr %6, align 4
  switch i32 %74, label %76 [
    i32 0, label %75
    i32 1, label %75
  ]

75:                                               ; preds = %12, %73, %73
  ret void

76:                                               ; preds = %73
  unreachable
}