; Function Attrs: nounwind uwtable
define void @TraceLog(i32 noundef %0, ptr noundef %1, ...) local_unnamed_addr #1 {
  %3 = alloca [1 x %struct.__va_list_tag], align 16
  %4 = alloca [256 x i8], align 16
  %5 = load i32, ptr @logTypeLevel, align 4
  %6 = icmp slt i32 %0, %5
  br i1 %6, label %32, label %7

7:                                                ; preds = %2
  call void @llvm.lifetime.start.p0(i64 24, ptr nonnull %3) #18
  call void @llvm.va_start.p0(ptr nonnull %3)
  %8 = load ptr, ptr @traceLog, align 8
  %.not = icmp eq ptr %8, null
  br i1 %.not, label %10, label %9

9:                                                ; preds = %7
  call void %8(i32 noundef %0, ptr noundef %1, ptr noundef nonnull %3) #18
  call void @llvm.va_end.p0(ptr nonnull %3)
  br label %31

10:                                               ; preds = %7
  call void @llvm.lifetime.start.p0(i64 256, ptr nonnull %4) #18
  call void @llvm.memset.p0.i64(ptr noundef nonnull align 16 dereferenceable(256) %4, i8 0, i64 256, i1 false)
  switch i32 %0, label %17 [
    i32 1, label %11
    i32 2, label %12
    i32 3, label %13
    i32 4, label %14
    i32 5, label %15
    i32 6, label %16
  ]

11:                                               ; preds = %10
  store i64 9071268410249812, ptr %4, align 16
  br label %17

12:                                               ; preds = %10
  store i64 9071277302236484, ptr %4, align 16
  br label %17

13:                                               ; preds = %10
  call void @llvm.memcpy.p0.p0.i64(ptr noundef nonnull align 16 dereferenceable(7) %4, ptr noundef nonnull align 1 dereferenceable(7) @.str.2, i64 7, i1 false) #18
  br label %17

14:                                               ; preds = %10
  call void @llvm.memcpy.p0.p0.i64(ptr noundef nonnull align 16 dereferenceable(10) %4, ptr noundef nonnull align 1 dereferenceable(10) @.str.3, i64 10, i1 false) #18
  br label %17

15:                                               ; preds = %10
  store i64 9071324447265349, ptr %4, align 16
  br label %17

16:                                               ; preds = %10
  store i64 9071298442707270, ptr %4, align 16
  br label %17

17:                                               ; preds = %10, %16, %15, %14, %13, %12, %11
  %18 = call i64 @strlen(ptr noundef nonnull dereferenceable(1) %1) #19
  %19 = trunc i64 %18 to i32
  %20 = call i64 @strlen(ptr noundef nonnull dereferenceable(1) %4) #19
  %21 = getelementptr inbounds nuw i8, ptr %4, i64 %20
  %22 = call i32 @llvm.umin.i32(i32 %19, i32 244)
  %23 = zext nneg i32 %22 to i64
  call void @llvm.memcpy.p0.p0.i64(ptr nonnull align 1 %21, ptr nonnull align 1 %1, i64 %23, i1 false)
  %strlen = call i64 @strlen(ptr nonnull dereferenceable(1) %4)
  %endptr = getelementptr inbounds i8, ptr %4, i64 %strlen
  store i16 10, ptr %endptr, align 1
  %24 = load ptr, ptr @stdout, align 8, !noalias !3
  %25 = call i32 @vfprintf(ptr noundef %24, ptr noundef nonnull %4, ptr noundef nonnull %3) #18
  %26 = load ptr, ptr @stdout, align 8
  %27 = call i32 @fflush(ptr noundef %26)
  call void @llvm.va_end.p0(ptr nonnull %3)
  %28 = icmp eq i32 %0, 6
  br i1 %28, label %29, label %30

29:                                               ; preds = %17
  call void @exit(i32 noundef 1) #20
  unreachable

30:                                               ; preds = %17
  call void @llvm.lifetime.end.p0(i64 256, ptr nonnull %4) #18
  br label %31

31:                                               ; preds = %30, %9
  call void @llvm.lifetime.end.p0(i64 24, ptr nonnull %3) #18
  br label %32

32:                                               ; preds = %2, %31
  ret void
}